target datalayout = "e-m:e-p270:32:32-p271:32:32-p272:64:64-i64:64-i128:128-f80:128-n8:16:32:64-S128"
target triple = "x86_64-pc-linux-gnu"

%struct.except_id_t = type { i64, i64 }
%struct._packet_info = type { ptr, ptr, i32, i32, %struct.nstime_t, %struct.nstime_t, %struct.nstime_t, i8, ptr, ptr, ptr, ptr, %struct._address, %struct._address, %struct._address, %struct._address, %struct._address, %struct._address, i32, ptr, i8, [3 x i8], %struct.anon, i32, i32, i32, i32, ptr, i8, ptr, ptr, i16, i16, i32, i32, i16, i32, i32, ptr, ptr, ptr, i8, i8, i16, i16, i16, i32, i16, i16, ptr, ptr, ptr, ptr, ptr, i32, i32 }
%struct.nstime_t = type { i64, i32 }
%struct._address = type { i32, i32, ptr, ptr }
%struct.anon = type { i8, [3 x i8] }
%struct.except_stacknode = type { ptr, i32, %union.anon }
%union.anon = type { ptr }
%struct.except_catch = type { ptr, i64, %struct.except_t, [1 x %struct.__jmp_buf_tag] }
%struct.except_t = type { %struct.except_id_t, ptr, ptr }
%struct.__jmp_buf_tag = type { [8 x i64], i32, %struct.__sigset_t }
%struct.__sigset_t = type { [16 x i64] }

@dissect_mysql_decompressed_pdus.catch_spec = internal constant [1 x %struct.except_id_t] [%struct.except_id_t { i64 1, i64 0 }], align 16

; Function Attrs: null_pointer_is_valid sspstrong uwtable
define internal i32 @get_mysql_pdu_len(ptr noundef %0, ptr noundef %1, i32 noundef %2, ptr noundef %3) #0 {
  %5 = alloca ptr, align 8
  %6 = alloca ptr, align 8
  %7 = alloca i32, align 4
  %8 = alloca ptr, align 8
  %9 = alloca i32, align 4
  store ptr %0, ptr %5, align 8
  store ptr %1, ptr %6, align 8
  store i32 %2, ptr %7, align 4
  store ptr %3, ptr %8, align 8
  call void @llvm.lifetime.start.p0(i64 4, ptr %9) #11
  %10 = load ptr, ptr %6, align 8
  %11 = load i32, ptr %7, align 4
  %12 = call i32 @tvb_get_letoh24(ptr noundef %10, i32 noundef %11)
  %13 = add i32 4, %12
  store i32 %13, ptr %9, align 4
  %14 = load i32, ptr %9, align 4
  call void @llvm.lifetime.end.p0(i64 4, ptr %9) #11
  ret i32 %14
}

; Function Attrs: null_pointer_is_valid sspstrong uwtable
define internal i32 @dissect_mysql_decompressed_pdus(ptr noundef %0, ptr noundef %1, ptr noundef %2, ptr noundef %3) #0 {
  %5 = alloca i32, align 4
  %6 = alloca ptr, align 8
  %7 = alloca ptr, align 8
  %8 = alloca ptr, align 8
  %9 = alloca ptr, align 8
  %10 = alloca ptr, align 8
  %11 = alloca i32, align 4
  %12 = alloca i32, align 4
  %13 = alloca i32, align 4
  %14 = alloca i32, align 4
  %15 = alloca i32, align 4
  %16 = alloca ptr, align 8
  %17 = alloca i32, align 4
  %18 = alloca %struct.except_stacknode, align 8
  %19 = alloca %struct.except_catch, align 8
  store ptr %0, ptr %6, align 8
  store ptr %1, ptr %7, align 8
  store ptr %2, ptr %8, align 8
  store ptr %3, ptr %9, align 8
  call void @llvm.lifetime.start.p0(i64 8, ptr %10) #11
  call void @llvm.lifetime.start.p0(i64 4, ptr %11) #11
  store volatile i32 0, ptr %11, align 4
  call void @llvm.lifetime.start.p0(i64 4, ptr %12) #11
  call void @llvm.lifetime.start.p0(i64 4, ptr %13) #11
  call void @llvm.lifetime.start.p0(i64 4, ptr %14) #11
  br label %20

20:                                               ; preds = %182, %4
  %21 = load ptr, ptr %6, align 8
  %22 = load volatile i32, ptr %11, align 4
  %23 = call i32 @tvb_reported_length_remaining(ptr noundef %21, i32 noundef %22)
  %24 = icmp ne i32 %23, 0
  br i1 %24, label %25, label %183

25:                                               ; preds = %20
  %26 = load ptr, ptr %6, align 8
  %27 = load volatile i32, ptr %11, align 4
  %28 = call i32 @tvb_ensure_reported_length_remaining(ptr noundef %26, i32 noundef %27)
  store i32 %28, ptr %13, align 4
  %29 = load i32, ptr %13, align 4
  %30 = icmp ult i32 %29, 3
  br i1 %30, label %31, label %38

31:                                               ; preds = %25
  %32 = load i32, ptr %13, align 4
  %33 = sub i32 3, %32
  %34 = load ptr, ptr %7, align 8
  %35 = getelementptr inbounds nuw %struct._packet_info, ptr %34, i32 0, i32 34
  store i32 %33, ptr %35, align 8
  %36 = load ptr, ptr %6, align 8
  %37 = call i32 @tvb_reported_length(ptr noundef %36)
  store i32 %37, ptr %5, align 4
  store i32 1, ptr %15, align 4
  br label %186

38:                                               ; preds = %25
  %39 = load ptr, ptr %7, align 8
  %40 = load ptr, ptr %6, align 8
  %41 = load volatile i32, ptr %11, align 4
  %42 = load ptr, ptr %9, align 8
  %43 = call i32 @get_mysql_pdu_len(ptr noundef %39, ptr noundef %40, i32 noundef %41, ptr noundef %42)
  store i32 %43, ptr %14, align 4
  %44 = load i32, ptr %14, align 4
  %45 = icmp ult i32 %44, 4
  br i1 %45, label %46, label %50

46:                                               ; preds = %38
  %47 = load ptr, ptr %6, align 8
  %48 = load ptr, ptr %7, align 8
  %49 = load ptr, ptr %8, align 8
  call void @show_reported_bounds_error(ptr noundef %47, ptr noundef %48, ptr noundef %49)
  br label %50

50:                                               ; preds = %46, %38
  %51 = load i32, ptr %13, align 4
  %52 = load i32, ptr %14, align 4
  %53 = icmp ult i32 %51, %52
  br i1 %53, label %54, label %71

54:                                               ; preds = %50
  %55 = load ptr, ptr %7, align 8
  %56 = getelementptr inbounds nuw %struct._packet_info, ptr %55, i32 0, i32 31
  %57 = load i16, ptr %56, align 8
  %58 = zext i16 %57 to i32
  %59 = icmp ne i32 %58, 0
  br i1 %59, label %60, label %71

60:                                               ; preds = %54
  %61 = load volatile i32, ptr %11, align 4
  %62 = load ptr, ptr %7, align 8
  %63 = getelementptr inbounds nuw %struct._packet_info, ptr %62, i32 0, i32 33
  store i32 %61, ptr %63, align 4
  %64 = load i32, ptr %14, align 4
  %65 = load i32, ptr %13, align 4
  %66 = sub i32 %64, %65
  %67 = load ptr, ptr %7, align 8
  %68 = getelementptr inbounds nuw %struct._packet_info, ptr %67, i32 0, i32 34
  store i32 %66, ptr %68, align 8
  %69 = load ptr, ptr %6, align 8
  %70 = call i32 @tvb_reported_length(ptr noundef %69)
  store i32 %70, ptr %5, align 4
  store i32 1, ptr %15, align 4
  br label %186

71:                                               ; preds = %54, %50
  %72 = load ptr, ptr %6, align 8
  %73 = load volatile i32, ptr %11, align 4
  %74 = load i32, ptr %14, align 4
  %75 = call ptr @tvb_new_subset_length(ptr noundef %72, i32 noundef %73, i32 noundef %74)
  store volatile ptr %75, ptr %10, align 8
  %76 = load i32, ptr %13, align 4
  %77 = load i32, ptr %14, align 4
  %78 = icmp ult i32 %76, %77
  br i1 %78, label %79, label %86

79:                                               ; preds = %71
  %80 = load ptr, ptr %7, align 8
  %81 = getelementptr inbounds nuw %struct._packet_info, ptr %80, i32 0, i32 31
  %82 = load i16, ptr %81, align 8
  %83 = icmp ne i16 %82, 0
  br i1 %83, label %86, label %84

84:                                               ; preds = %79
  %85 = load volatile ptr, ptr %10, align 8
  call void @tvb_set_fragment(ptr noundef %85)
  br label %86

86:                                               ; preds = %84, %79, %71
  call void @llvm.lifetime.start.p0(i64 8, ptr %16) #11
  call void @llvm.lifetime.start.p0(i64 4, ptr %17) #11
  store volatile i32 0, ptr %17, align 4
  call void @llvm.lifetime.start.p0(i64 24, ptr %18) #11
  call void @llvm.lifetime.start.p0(i64 248, ptr %19) #11
  call void @except_setup_try(ptr noundef %18, ptr noundef %19, ptr noundef @dissect_mysql_decompressed_pdus.catch_spec, i64 noundef 1)
  %87 = getelementptr inbounds nuw %struct.except_catch, ptr %19, i32 0, i32 3
  %88 = getelementptr inbounds [1 x %struct.__jmp_buf_tag], ptr %87, i64 0, i64 0
  %89 = call i32 @_setjmp(ptr noundef %88) #12
  %90 = icmp ne i32 %89, 0
  br i1 %90, label %91, label %93

91:                                               ; preds = %86
  %92 = getelementptr inbounds nuw %struct.except_catch, ptr %19, i32 0, i32 2
  store volatile ptr %92, ptr %16, align 8
  br label %94

93:                                               ; preds = %86
  store volatile ptr null, ptr %16, align 8
  br label %94

94:                                               ; preds = %93, %91
  %95 = load volatile i32, ptr %17, align 4
  %96 = and i32 %95, 1
  %97 = icmp ne i32 %96, 0
  br i1 %97, label %98, label %101

98:                                               ; preds = %94
  %99 = load volatile i32, ptr %17, align 4
  %100 = or i32 %99, 2
  store volatile i32 %100, ptr %17, align 4
  br label %101

101:                                              ; preds = %98, %94
  %102 = load volatile i32, ptr %17, align 4
  %103 = and i32 %102, -2
  store volatile i32 %103, ptr %17, align 4
  %104 = load volatile i32, ptr %17, align 4
  %105 = icmp eq i32 %104, 0
  br i1 %105, label %106, label %115

106:                                              ; preds = %101
  %107 = load volatile ptr, ptr %16, align 8
  %108 = icmp eq ptr %107, null
  br i1 %108, label %109, label %115

109:                                              ; preds = %106
  %110 = load volatile ptr, ptr %10, align 8
  %111 = load ptr, ptr %7, align 8
  %112 = load ptr, ptr %8, align 8
  %113 = load ptr, ptr %9, align 8
  %114 = call i32 @dissect_mysql_pdu(ptr noundef %110, ptr noundef %111, ptr noundef %112, ptr noundef %113)
  br label %115

115:                                              ; preds = %109, %106, %101
  %116 = load volatile i32, ptr %17, align 4
  %117 = icmp eq i32 %116, 0
  br i1 %117, label %118, label %160

118:                                              ; preds = %115
  %119 = load volatile ptr, ptr %16, align 8
  %120 = icmp ne ptr %119, null
  br i1 %120, label %121, label %160

121:                                              ; preds = %118
  %122 = load volatile ptr, ptr %16, align 8
  %123 = getelementptr inbounds nuw %struct.except_t, ptr %122, i32 0, i32 0
  %124 = getelementptr inbounds nuw %struct.except_id_t, ptr %123, i32 0, i32 1
  %125 = load volatile i64, ptr %124, align 8
  %126 = icmp eq i64 %125, 3
  br i1 %126, label %145, label %127

127:                                              ; preds = %121
  %128 = load volatile ptr, ptr %16, align 8
  %129 = getelementptr inbounds nuw %struct.except_t, ptr %128, i32 0, i32 0
  %130 = getelementptr inbounds nuw %struct.except_id_t, ptr %129, i32 0, i32 1
  %131 = load volatile i64, ptr %130, align 8
  %132 = icmp eq i64 %131, 2
  br i1 %132, label %145, label %133

133:                                              ; preds = %127
  %134 = load volatile ptr, ptr %16, align 8
  %135 = getelementptr inbounds nuw %struct.except_t, ptr %134, i32 0, i32 0
  %136 = getelementptr inbounds nuw %struct.except_id_t, ptr %135, i32 0, i32 1
  %137 = load volatile i64, ptr %136, align 8
  %138 = icmp eq i64 %137, 7
  br i1 %138, label %145, label %139

139:                                              ; preds = %133
  %140 = load volatile ptr, ptr %16, align 8
  %141 = getelementptr inbounds nuw %struct.except_t, ptr %140, i32 0, i32 0
  %142 = getelementptr inbounds nuw %struct.except_id_t, ptr %141, i32 0, i32 1
  %143 = load volatile i64, ptr %142, align 8
  %144 = icmp eq i64 %143, 9
  br i1 %144, label %145, label %160

145:                                              ; preds = %139, %133, %127, %121
  %146 = load volatile i32, ptr %17, align 4
  %147 = or i32 %146, 1
  store volatile i32 %147, ptr %17, align 4
  %148 = icmp ne i32 %147, 0
  br i1 %148, label %149, label %160

149:                                              ; preds = %145
  %150 = load ptr, ptr %6, align 8
  %151 = load ptr, ptr %7, align 8
  %152 = load ptr, ptr %8, align 8
  %153 = load volatile ptr, ptr %16, align 8
  %154 = getelementptr inbounds nuw %struct.except_t, ptr %153, i32 0, i32 0
  %155 = getelementptr inbounds nuw %struct.except_id_t, ptr %154, i32 0, i32 1
  %156 = load volatile i64, ptr %155, align 8
  %157 = load volatile ptr, ptr %16, align 8
  %158 = getelementptr inbounds nuw %struct.except_t, ptr %157, i32 0, i32 1
  %159 = load volatile ptr, ptr %158, align 8
  call void @show_exception(ptr noundef %150, ptr noundef %151, ptr noundef %152, i64 noundef %156, ptr noundef %159)
  br label %160

160:                                              ; preds = %149, %145, %139, %118, %115
  %161 = load volatile i32, ptr %17, align 4
  %162 = and i32 %161, 1
  %163 = icmp ne i32 %162, 0
  br i1 %163, label %169, label %164

164:                                              ; preds = %160
  %165 = load volatile ptr, ptr %16, align 8
  %166 = icmp ne ptr %165, null
  br i1 %166, label %167, label %169

167:                                              ; preds = %164
  %168 = load volatile ptr, ptr %16, align 8
  call void @except_rethrow(ptr noundef %168) #13
  unreachable

169:                                              ; preds = %164, %160
  %170 = getelementptr inbounds nuw %struct.except_catch, ptr %19, i32 0, i32 2
  %171 = getelementptr inbounds nuw %struct.except_t, ptr %170, i32 0, i32 2
  %172 = load volatile ptr, ptr %171, align 8
  call void @except_free(ptr noundef %172)
  %173 = call ptr @except_pop()
  call void @llvm.lifetime.end.p0(i64 248, ptr %19) #11
  call void @llvm.lifetime.end.p0(i64 24, ptr %18) #11
  call void @llvm.lifetime.end.p0(i64 4, ptr %17) #11
  call void @llvm.lifetime.end.p0(i64 8, ptr %16) #11
  %174 = load volatile i32, ptr %11, align 4
  store i32 %174, ptr %12, align 4
  %175 = load i32, ptr %14, align 4
  %176 = load volatile i32, ptr %11, align 4
  %177 = add i32 %176, %175
  store volatile i32 %177, ptr %11, align 4
  %178 = load volatile i32, ptr %11, align 4
  %179 = load i32, ptr %12, align 4
  %180 = icmp sle i32 %178, %179
  br i1 %180, label %181, label %182

181:                                              ; preds = %169
  br label %183

182:                                              ; preds = %169
  br label %20, !llvm.loop !8

183:                                              ; preds = %181, %20
  %184 = load ptr, ptr %6, align 8
  %185 = call i32 @tvb_reported_length(ptr noundef %184)
  store i32 %185, ptr %5, align 4
  store i32 1, ptr %15, align 4
  br label %186

186:                                              ; preds = %183, %60, %31
  call void @llvm.lifetime.end.p0(i64 4, ptr %14) #11
  call void @llvm.lifetime.end.p0(i64 4, ptr %13) #11
  call void @llvm.lifetime.end.p0(i64 4, ptr %12) #11
  call void @llvm.lifetime.end.p0(i64 4, ptr %11) #11
  call void @llvm.lifetime.end.p0(i64 8, ptr %10) #11
  %187 = load i32, ptr %5, align 4
  ret i32 %187
}