; Function Attrs: null_pointer_is_valid sspstrong uwtable
define internal i32 @dissect_mysql_decompressed_pdus(ptr noundef %0, ptr noundef %1, ptr noundef %2, ptr noundef readnone captures(none) %3) #0 {
  %5 = alloca ptr, align 8
  %6 = alloca i32, align 4
  %7 = alloca ptr, align 8
  %8 = alloca i32, align 4
  %9 = alloca %struct.except_stacknode, align 8
  %10 = alloca %struct.except_catch, align 8
  call void @llvm.lifetime.start.p0(i64 8, ptr nonnull %5)
  call void @llvm.lifetime.start.p0(i64 4, ptr nonnull %6)
  store volatile i32 0, ptr %6, align 4
  %11 = getelementptr inbounds nuw i8, ptr %1, i64 328
  %12 = getelementptr inbounds nuw i8, ptr %10, i64 48
  %13 = getelementptr inbounds nuw i8, ptr %10, i64 16
  %14 = getelementptr inbounds nuw i8, ptr %10, i64 40
  br label %15

15:                                               ; preds = %77, %4
  %.0..0..0..0.28 = load volatile i32, ptr %6, align 4
  %16 = call i32 @tvb_reported_length_remaining(ptr noundef %0, i32 noundef %.0..0..0..0.28)
  %.not = icmp eq i32 %16, 0
  br i1 %.not, label %.loopexit, label %17

17:                                               ; preds = %15
  %.0..0..0..0.29 = load volatile i32, ptr %6, align 4
  %18 = call i32 @tvb_ensure_reported_length_remaining(ptr noundef %0, i32 noundef %.0..0..0..0.29)
  %19 = icmp ult i32 %18, 3
  br i1 %19, label %.sink.split, label %20

20:                                               ; preds = %17
  %.0..0..0..0.30 = load volatile i32, ptr %6, align 4
  %21 = call i32 @tvb_get_letoh24(ptr noundef %0, i32 noundef %.0..0..0..0.30)
  %22 = add i32 %21, 4
  %23 = icmp ugt i32 %21, -5
  br i1 %23, label %24, label %25

24:                                               ; preds = %20
  call void @show_reported_bounds_error(ptr noundef %0, ptr noundef %1, ptr noundef %2)
  br label %25

25:                                               ; preds = %24, %20
  %26 = icmp ult i32 %18, %22
  br i1 %26, label %27, label %.critedge

27:                                               ; preds = %25
  %28 = load i16, ptr %11, align 8
  %.not64 = icmp eq i16 %28, 0
  %.0..0..0..0.32 = load volatile i32, ptr %6, align 4
  br i1 %.not64, label %31, label %29

29:                                               ; preds = %27
  %30 = getelementptr inbounds nuw i8, ptr %1, i64 332
  store i32 %.0..0..0..0.32, ptr %30, align 4
  br label %.sink.split

31:                                               ; preds = %27
  %32 = call ptr @tvb_new_subset_length(ptr noundef %0, i32 noundef %.0..0..0..0.32, i32 noundef %22)
  store volatile ptr %32, ptr %5, align 8
  %33 = load i16, ptr %11, align 8
  %.not65 = icmp eq i16 %33, 0
  br i1 %.not65, label %34, label %36

34:                                               ; preds = %31
  %.0..0..0..0.36 = load volatile ptr, ptr %5, align 8
  call void @tvb_set_fragment(ptr noundef %.0..0..0..0.36)
  br label %36

.critedge:                                        ; preds = %25
  %.0..0..0..0.32.c = load volatile i32, ptr %6, align 4
  %35 = call ptr @tvb_new_subset_length(ptr noundef %0, i32 noundef %.0..0..0..0.32.c, i32 noundef %22)
  store volatile ptr %35, ptr %5, align 8
  br label %36

36:                                               ; preds = %.critedge, %34, %31
  call void @llvm.lifetime.start.p0(i64 8, ptr nonnull %7)
  call void @llvm.lifetime.start.p0(i64 4, ptr nonnull %8)
  store volatile i32 0, ptr %8, align 4
  call void @llvm.lifetime.start.p0(i64 24, ptr nonnull %9) #10
  call void @llvm.lifetime.start.p0(i64 248, ptr nonnull %10) #10
  call void @except_setup_try(ptr noundef nonnull %9, ptr noundef nonnull %10, ptr noundef nonnull @dissect_mysql_decompressed_pdus.catch_spec, i64 noundef 1)
  %37 = call i32 @_setjmp(ptr noundef nonnull %12) #11
  %.not66 = icmp eq i32 %37, 0
  %. = select i1 %.not66, ptr null, ptr %13
  store volatile ptr %., ptr %7, align 8
  %.0..0..0..0. = load volatile i32, ptr %8, align 4
  %38 = and i32 %.0..0..0..0., 1
  %.not67 = icmp eq i32 %38, 0
  br i1 %.not67, label %41, label %39

39:                                               ; preds = %36
  %.0..0..0..0.1 = load volatile i32, ptr %8, align 4
  %40 = or i32 %.0..0..0..0.1, 2
  store volatile i32 %40, ptr %8, align 4
  br label %41

41:                                               ; preds = %39, %36
  %.0..0..0..0.2 = load volatile i32, ptr %8, align 4
  %42 = and i32 %.0..0..0..0.2, -2
  store volatile i32 %42, ptr %8, align 4
  %.0..0..0..0.3 = load volatile i32, ptr %8, align 4
  %43 = icmp eq i32 %.0..0..0..0.3, 0
  br i1 %43, label %44, label %48

44:                                               ; preds = %41
  %.0..0..0..0.7 = load volatile ptr, ptr %7, align 8
  %45 = icmp eq ptr %.0..0..0..0.7, null
  br i1 %45, label %46, label %48

46:                                               ; preds = %44
  %.0..0..0..0.37 = load volatile ptr, ptr %5, align 8
  %47 = call i32 @dissect_mysql_pdu(ptr noundef %.0..0..0..0.37, ptr noundef %1, ptr noundef %2, ptr poison)
  br label %48

48:                                               ; preds = %46, %44, %41
  %.0..0..0..0.4 = load volatile i32, ptr %8, align 4
  %49 = icmp eq i32 %.0..0..0..0.4, 0
  br i1 %49, label %50, label %73

50:                                               ; preds = %48
  %.0..0..0..0.8 = load volatile ptr, ptr %7, align 8
  %.not68 = icmp eq ptr %.0..0..0..0.8, null
  br i1 %.not68, label %73, label %51

51:                                               ; preds = %50
  %.0..0..0..0.9 = load volatile ptr, ptr %7, align 8
  %52 = getelementptr inbounds nuw i8, ptr %.0..0..0..0.9, i64 8
  %53 = load volatile i64, ptr %52, align 8
  %54 = icmp eq i64 %53, 3
  br i1 %54, label %67, label %55

55:                                               ; preds = %51
  %.0..0..0..0.10 = load volatile ptr, ptr %7, align 8
  %56 = getelementptr inbounds nuw i8, ptr %.0..0..0..0.10, i64 8
  %57 = load volatile i64, ptr %56, align 8
  %58 = icmp eq i64 %57, 2
  br i1 %58, label %67, label %59

59:                                               ; preds = %55
  %.0..0..0..0.11 = load volatile ptr, ptr %7, align 8
  %60 = getelementptr inbounds nuw i8, ptr %.0..0..0..0.11, i64 8
  %61 = load volatile i64, ptr %60, align 8
  %62 = icmp eq i64 %61, 7
  br i1 %62, label %67, label %63

63:                                               ; preds = %59
  %.0..0..0..0.12 = load volatile ptr, ptr %7, align 8
  %64 = getelementptr inbounds nuw i8, ptr %.0..0..0..0.12, i64 8
  %65 = load volatile i64, ptr %64, align 8
  %66 = icmp eq i64 %65, 9
  br i1 %66, label %67, label %73

67:                                               ; preds = %63, %59, %55, %51
  %.0..0..0..0.5 = load volatile i32, ptr %8, align 4
  %68 = or i32 %.0..0..0..0.5, 1
  store volatile i32 %68, ptr %8, align 4
  %.0..0..0..0.13 = load volatile ptr, ptr %7, align 8
  %69 = getelementptr inbounds nuw i8, ptr %.0..0..0..0.13, i64 8
  %70 = load volatile i64, ptr %69, align 8
  %.0..0..0..0.14 = load volatile ptr, ptr %7, align 8
  %71 = getelementptr inbounds nuw i8, ptr %.0..0..0..0.14, i64 16
  %72 = load volatile ptr, ptr %71, align 8
  call void @show_exception(ptr noundef %0, ptr noundef %1, ptr noundef %2, i64 noundef %70, ptr noundef %72)
  br label %73

73:                                               ; preds = %67, %63, %50, %48
  %.0..0..0..0.6 = load volatile i32, ptr %8, align 4
  %74 = and i32 %.0..0..0..0.6, 1
  %.not69 = icmp eq i32 %74, 0
  br i1 %.not69, label %75, label %77

75:                                               ; preds = %73
  %.0..0..0..0.15 = load volatile ptr, ptr %7, align 8
  %.not70 = icmp eq ptr %.0..0..0..0.15, null
  br i1 %.not70, label %77, label %76

76:                                               ; preds = %75
  %.0..0..0..0.16 = load volatile ptr, ptr %7, align 8
  call void @except_rethrow(ptr noundef %.0..0..0..0.16) #12
  unreachable

77:                                               ; preds = %75, %73
  %78 = load volatile ptr, ptr %14, align 8
  call void @except_free(ptr noundef %78)
  %79 = call ptr @except_pop()
  call void @llvm.lifetime.end.p0(i64 248, ptr nonnull %10) #10
  call void @llvm.lifetime.end.p0(i64 24, ptr nonnull %9) #10
  call void @llvm.lifetime.end.p0(i64 4, ptr nonnull %8)
  call void @llvm.lifetime.end.p0(i64 8, ptr nonnull %7)
  %.0..0..0..0.33 = load volatile i32, ptr %6, align 4
  %.0..0..0..0.34 = load volatile i32, ptr %6, align 4
  %80 = add i32 %.0..0..0..0.34, %22
  store volatile i32 %80, ptr %6, align 4
  %.0..0..0..0.35 = load volatile i32, ptr %6, align 4
  %.not71 = icmp sgt i32 %.0..0..0..0.35, %.0..0..0..0.33
  br i1 %.not71, label %15, label %.loopexit, !llvm.loop !8

.sink.split:                                      ; preds = %17, %29
  %.pn = phi i32 [ %22, %29 ], [ 3, %17 ]
  %.sink = sub i32 %.pn, %18
  %81 = getelementptr inbounds nuw i8, ptr %1, i64 336
  store i32 %.sink, ptr %81, align 8
  br label %.loopexit

.loopexit:                                        ; preds = %15, %77, %.sink.split
  %82 = call i32 @tvb_reported_length(ptr noundef %0)
  call void @llvm.lifetime.end.p0(i64 4, ptr nonnull %6)
  call void @llvm.lifetime.end.p0(i64 8, ptr nonnull %5)
  ret i32 %82
}